Certificate:
    Data:
        Version: 3 (0x2)
        Serial Number: 1 (0x1)
        Signature Algorithm: sha1WithRSAEncryption
        Issuer: DC=org, DC=simple, O=Simple Inc, OU=Simple Root CA, CN=Simple Root CA
        Validity
            Not Before: Jan 14 11:14:15 2021 GMT
            Not After : Jan 14 11:14:15 2031 GMT
        Subject: DC=org, DC=simple, O=Simple Inc, OU=Simple Root CA, CN=Simple Root CA
        Subject Public Key Info:
            Public Key Algorithm: rsaEncryption
                RSA Public-Key: (2048 bit)
                Modulus:
                    00:a4:7a:26:63:c1:d9:80:23:ea:c8:81:2e:2e:e2:
                    77:be:37:c1:d6:8c:35:a4:3c:53:7c:e0:b1:b1:e1:
                    9f:49:47:fe:e6:24:5e:16:28:ab:c2:0f:d6:5b:03:
                    f2:12:68:89:ae:d8:0f:4d:11:de:68:19:7f:57:d3:
                    43:3e:e2:98:f0:94:7c:c1:f5:5d:1d:88:12:28:9e:
                    d0:b0:2b:a5:d1:6e:41:82:1e:e1:31:da:71:4f:b6:
                    5c:9c:49:fb:b6:4c:69:e6:e9:2a:94:64:dc:eb:08:
                    33:a0:2c:63:84:40:0f:c4:d6:f3:3d:33:de:08:ab:
                    ad:21:d4:58:14:de:9a:96:d6:a8:bd:69:7d:a1:2d:
                    dd:11:7c:53:27:4b:0d:60:e6:aa:3e:ec:74:a7:bc:
                    ef:86:05:57:22:4c:a3:e0:eb:3c:f8:8b:d1:fb:3f:
                    8d:e3:e2:22:ef:cf:d3:c1:ff:55:0d:8e:bf:4e:60:
                    50:6f:3f:16:28:81:5e:9d:39:48:ee:fb:2c:08:83:
                    cd:a3:6c:ed:68:45:8f:1b:d4:ef:2a:7b:f0:50:75:
                    8e:1a:cb:4e:c7:7f:71:34:76:96:af:d2:12:41:71:
                    8c:e7:e4:29:53:9a:09:2a:92:85:b3:fd:52:40:a6:
                    bb:79:93:53:c5:ed:3a:40:fd:e3:12:a9:00:1c:ac:
                    4c:f7
                Exponent: 65537 (0x10001)
        X509v3 extensions:
            X509v3 Key Usage: critical
                Certificate Sign, CRL Sign
            X509v3 Basic Constraints: critical
                CA:TRUE
            X509v3 Subject Key Identifier: 
                08:0C:D0:E5:51:5B:A6:E7:E9:07:C7:69:3E:BA:AB:36:A3:8B:D3:4B
            X509v3 Authority Key Identifier: 
                keyid:08:0C:D0:E5:51:5B:A6:E7:E9:07:C7:69:3E:BA:AB:36:A3:8B:D3:4B

    Signature Algorithm: sha1WithRSAEncryption
         7c:38:02:94:99:44:19:9d:81:b6:4a:82:6a:4d:68:2c:f5:52:
         92:1d:16:a9:2d:06:a6:bc:06:29:fc:e5:61:b9:15:67:05:f3:
         c7:ce:5c:8e:5d:78:04:b8:c7:4d:d9:bf:05:42:3d:44:95:9c:
         26:f4:78:2c:19:22:57:2c:81:2e:a3:88:89:5b:8f:32:75:11:
         49:0c:1b:1f:05:41:1c:4e:29:71:ab:3f:5e:28:39:3f:27:eb:
         0c:32:89:23:50:6c:c9:77:4a:fc:73:bd:8a:91:c4:ef:70:5b:
         67:bb:b9:a7:8b:60:30:c6:09:f2:eb:d4:dd:ce:c4:e8:bc:33:
         17:2c:7a:80:fb:8a:63:49:7b:3c:bd:c1:3f:bc:67:ef:97:ca:
         6b:78:11:17:a2:57:9b:56:73:5e:ad:e6:21:4e:62:fd:29:6b:
         28:f5:32:ff:1a:00:b2:5c:aa:2a:f4:0a:a0:74:7a:76:65:ab:
         3d:e9:92:9d:0b:4c:09:2a:3b:7d:0f:24:d7:e5:4a:19:4e:06:
         e1:53:0d:30:5a:5b:4d:56:4b:bb:83:d2:42:a4:f0:58:94:38:
         74:23:ea:02:13:76:4a:5e:a9:1c:32:f1:95:b1:9e:d1:8d:84:
         73:a9:52:94:91:61:f0:67:ed:6f:f6:96:f9:56:c0:fd:e8:0f:
         b6:ee:bf:4f
-----BEGIN CERTIFICATE-----
MIIDxjCCAq6gAwIBAgIBATANBgkqhkiG9w0BAQUFADB0MRMwEQYKCZImiZPyLGQB
GRYDb3JnMRYwFAYKCZImiZPyLGQBGRYGc2ltcGxlMRMwEQYDVQQKDApTaW1wbGUg
SW5jMRcwFQYDVQQLDA5TaW1wbGUgUm9vdCBDQTEXMBUGA1UEAwwOU2ltcGxlIFJv
b3QgQ0EwHhcNMjEwMTE0MTExNDE1WhcNMzEwMTE0MTExNDE1WjB0MRMwEQYKCZIm
iZPyLGQBGRYDb3JnMRYwFAYKCZImiZPyLGQBGRYGc2ltcGxlMRMwEQYDVQQKDApT
aW1wbGUgSW5jMRcwFQYDVQQLDA5TaW1wbGUgUm9vdCBDQTEXMBUGA1UEAwwOU2lt
cGxlIFJvb3QgQ0EwggEiMA0GCSqGSIb3DQEBAQUAA4IBDwAwggEKAoIBAQCkeiZj
wdmAI+rIgS4u4ne+N8HWjDWkPFN84LGx4Z9JR/7mJF4WKKvCD9ZbA/ISaImu2A9N
Ed5oGX9X00M+4pjwlHzB9V0diBIontCwK6XRbkGCHuEx2nFPtlycSfu2TGnm6SqU
ZNzrCDOgLGOEQA/E1vM9M94Iq60h1FgU3pqW1qi9aX2hLd0RfFMnSw1g5qo+7HSn
vO+GBVciTKPg6zz4i9H7P43j4iLvz9PB/1UNjr9OYFBvPxYogV6dOUju+ywIg82j
bO1oRY8b1O8qe/BQdY4ay07Hf3E0dpav0hJBcYzn5ClTmgkqkoWz/VJAprt5k1PF
7TpA/eMSqQAcrEz3AgMBAAGjYzBhMA4GA1UdDwEB/wQEAwIBBjAPBgNVHRMBAf8E
BTADAQH/MB0GA1UdDgQWBBQIDNDlUVum5+kHx2k+uqs2o4vTSzAfBgNVHSMEGDAW
gBQIDNDlUVum5+kHx2k+uqs2o4vTSzANBgkqhkiG9w0BAQUFAAOCAQEAfDgClJlE
GZ2BtkqCak1oLPVSkh0WqS0GprwGKfzlYbkVZwXzx85cjl14BLjHTdm/BUI9RJWc
JvR4LBkiVyyBLqOIiVuPMnURSQwbHwVBHE4pcas/Xig5PyfrDDKJI1BsyXdK/HO9
ipHE73BbZ7u5p4tgMMYJ8uvU3c7E6LwzFyx6gPuKY0l7PL3BP7xn75fKa3gRF6JX
m1ZzXq3mIU5i/SlrKPUy/xoAslyqKvQKoHR6dmWrPemSnQtMCSo7fQ8k1+VKGU4G
4VMNMFpbTVZLu4PSQqTwWJQ4dCPqAhN2Sl6pHDLxlbGe0Y2Ec6lSlJFh8Gftb/aW
+VbA/egPtu6/Tw==
-----END CERTIFICATE-----
